; Function Attrs: mustprogress uwtable
define void @_ZN21EditReferencingPlugin8decorateER9MeshModelP6GLAreaP8QPainter(ptr noundef nonnull align 8 dereferenceable(704) %0, ptr noundef nonnull align 8 dereferenceable(1288) %1, ptr nocapture noundef readnone %2, ptr noundef %3) unnamed_addr #9 align 2 {
  %5 = getelementptr inbounds i8, ptr %0, i64 72
  %6 = load i32, ptr %5, align 8
  switch i32 %6, label %9 [
    i32 0, label %7
    i32 1, label %8
  ]

7:                                                ; preds = %4
  tail call void @_ZN21EditReferencingPlugin16DecorateAbsoluteER9MeshModelP6GLAreaP8QPainter(ptr noundef nonnull align 8 dereferenceable(704) %0, ptr noundef nonnull align 8 dereferenceable(1288) %1, ptr poison, ptr noundef %3)
  br label %9

8:                                                ; preds = %4
  tail call void @_ZN21EditReferencingPlugin13DecorateScaleER9MeshModelP6GLAreaP8QPainter(ptr noundef nonnull align 8 dereferenceable(704) %0, ptr noundef nonnull align 8 dereferenceable(1288) %1, ptr poison, ptr noundef %3)
  br label %9

9:                                                ; preds = %4, %8, %7
  ret void
}